; Function Attrs: mustprogress uwtable
define hidden noundef ptr @_ZN4ncnn3Net30create_overwrite_builtin_layerEPKc(ptr noundef nonnull align 8 dereferenceable(80) %0, ptr noundef %1) unnamed_addr #2 align 2 {
  %3 = tail call noundef i32 @_ZN4ncnn14layer_to_indexEPKc(ptr noundef %1)
  %4 = icmp eq i32 %3, -1
  br i1 %4, label %10, label %5

5:                                                ; preds = %2
  %6 = load ptr, ptr %0, align 8, !tbaa !4
  %7 = getelementptr inbounds nuw i8, ptr %6, i64 48
  %8 = load ptr, ptr %7, align 8
  %9 = tail call noundef ptr %8(ptr noundef nonnull align 8 dereferenceable(80) %0, i32 noundef %3)
  br label %10

10:                                               ; preds = %2, %5
  %.0 = phi ptr [ %9, %5 ], [ null, %2 ]
  ret ptr %.0
}